target datalayout = "e-m:e-p270:32:32-p271:32:32-p272:64:64-i64:64-i128:128-f80:128-n8:16:32:64-S128"
target triple = "x86_64-pc-linux-gnu"

%struct.fstReaderContext = type { ptr, ptr, i64, i64, i64, i64, i64, i32, i64, i64, ptr, ptr, ptr, i32, ptr, i8, i8, i8, [129 x i8], [120 x i8], i64, ptr, ptr, i64, i32, ptr, ptr, i64, i64, i8, ptr, i64, i64, ptr, i64, ptr, ptr, i64, i64, ptr, i32, i32, ptr, i32, i32, i32, i64, i8, %struct.fstHier, ptr, i32, ptr, i32, i8, [513 x i8], [513 x i8], ptr, i8, i32, i32, [65536 x i8], ptr, ptr }
%struct.fstHier = type { i8, %union.anon }
%union.anon = type { %"struct.fstHier::(anonymous union)::fstHierAttr" }
%"struct.fstHier::(anonymous union)::fstHierAttr" = type { i8, i8, ptr, i64, i64, i32 }
%struct.fstCurrHier = type { ptr, ptr, i32 }

@.str.11 = private unnamed_addr constant [1 x i8] zeroinitializer, align 1

; Function Attrs: mustprogress nounwind uwtable
define ptr @fstReaderPopScope(ptr noundef %0) #8 {
  %2 = alloca ptr, align 8
  %3 = alloca ptr, align 8
  %4 = alloca ptr, align 8
  %5 = alloca ptr, align 8
  %6 = alloca i32, align 4
  store ptr %0, ptr %3, align 8, !tbaa !50
  call void @llvm.lifetime.start.p0(i64 8, ptr %4) #15
  %7 = load ptr, ptr %3, align 8, !tbaa !50
  store ptr %7, ptr %4, align 8, !tbaa !147
  %8 = load ptr, ptr %4, align 8, !tbaa !147
  %9 = icmp ne ptr %8, null
  br i1 %9, label %10, label %62

10:                                               ; preds = %1
  %11 = load ptr, ptr %4, align 8, !tbaa !147
  %12 = getelementptr inbounds nuw %struct.fstReaderContext, ptr %11, i32 0, i32 49
  %13 = load ptr, ptr %12, align 8, !tbaa !153
  %14 = icmp ne ptr %13, null
  br i1 %14, label %15, label %62

15:                                               ; preds = %10
  call void @llvm.lifetime.start.p0(i64 8, ptr %5) #15
  %16 = load ptr, ptr %4, align 8, !tbaa !147
  %17 = getelementptr inbounds nuw %struct.fstReaderContext, ptr %16, i32 0, i32 49
  %18 = load ptr, ptr %17, align 8, !tbaa !153
  store ptr %18, ptr %5, align 8, !tbaa !156
  %19 = load ptr, ptr %4, align 8, !tbaa !147
  %20 = getelementptr inbounds nuw %struct.fstReaderContext, ptr %19, i32 0, i32 49
  %21 = load ptr, ptr %20, align 8, !tbaa !153
  %22 = getelementptr inbounds nuw %struct.fstCurrHier, ptr %21, i32 0, i32 0
  %23 = load ptr, ptr %22, align 8, !tbaa !157
  %24 = icmp ne ptr %23, null
  br i1 %24, label %25, label %38

25:                                               ; preds = %15
  %26 = load ptr, ptr %4, align 8, !tbaa !147
  %27 = getelementptr inbounds nuw %struct.fstReaderContext, ptr %26, i32 0, i32 51
  %28 = load ptr, ptr %27, align 8, !tbaa !149
  %29 = load ptr, ptr %4, align 8, !tbaa !147
  %30 = getelementptr inbounds nuw %struct.fstReaderContext, ptr %29, i32 0, i32 49
  %31 = load ptr, ptr %30, align 8, !tbaa !153
  %32 = getelementptr inbounds nuw %struct.fstCurrHier, ptr %31, i32 0, i32 0
  %33 = load ptr, ptr %32, align 8, !tbaa !157
  %34 = getelementptr inbounds nuw %struct.fstCurrHier, ptr %33, i32 0, i32 2
  %35 = load i32, ptr %34, align 8, !tbaa !158
  %36 = sext i32 %35 to i64
  %37 = getelementptr inbounds i8, ptr %28, i64 %36
  store i8 0, ptr %37, align 1, !tbaa !34
  br label %42

38:                                               ; preds = %15
  %39 = load ptr, ptr %4, align 8, !tbaa !147
  %40 = getelementptr inbounds nuw %struct.fstReaderContext, ptr %39, i32 0, i32 51
  %41 = load ptr, ptr %40, align 8, !tbaa !149
  store i8 0, ptr %41, align 1, !tbaa !34
  br label %42

42:                                               ; preds = %38, %25
  %43 = load ptr, ptr %4, align 8, !tbaa !147
  %44 = getelementptr inbounds nuw %struct.fstReaderContext, ptr %43, i32 0, i32 49
  %45 = load ptr, ptr %44, align 8, !tbaa !153
  %46 = getelementptr inbounds nuw %struct.fstCurrHier, ptr %45, i32 0, i32 0
  %47 = load ptr, ptr %46, align 8, !tbaa !157
  %48 = load ptr, ptr %4, align 8, !tbaa !147
  %49 = getelementptr inbounds nuw %struct.fstReaderContext, ptr %48, i32 0, i32 49
  store ptr %47, ptr %49, align 8, !tbaa !153
  %50 = load ptr, ptr %5, align 8, !tbaa !156
  call void @free(ptr noundef %50) #15
  %51 = load ptr, ptr %4, align 8, !tbaa !147
  %52 = getelementptr inbounds nuw %struct.fstReaderContext, ptr %51, i32 0, i32 51
  %53 = load ptr, ptr %52, align 8, !tbaa !149
  %54 = icmp ne ptr %53, null
  br i1 %54, label %55, label %59

55:                                               ; preds = %42
  %56 = load ptr, ptr %4, align 8, !tbaa !147
  %57 = getelementptr inbounds nuw %struct.fstReaderContext, ptr %56, i32 0, i32 51
  %58 = load ptr, ptr %57, align 8, !tbaa !149
  br label %60

59:                                               ; preds = %42
  br label %60

60:                                               ; preds = %59, %55
  %61 = phi ptr [ %58, %55 ], [ @.str.11, %59 ]
  store ptr %61, ptr %2, align 8
  store i32 1, ptr %6, align 4
  call void @llvm.lifetime.end.p0(i64 8, ptr %5) #15
  br label %63

62:                                               ; preds = %10, %1
  store ptr null, ptr %2, align 8
  store i32 1, ptr %6, align 4
  br label %63

63:                                               ; preds = %62, %60
  call void @llvm.lifetime.end.p0(i64 8, ptr %4) #15
  %64 = load ptr, ptr %2, align 8
  ret ptr %64
}