; Function Attrs: mustprogress nounwind willreturn uwtable
define ptr @fstReaderPopScope(ptr noundef captures(address_is_null) %0) local_unnamed_addr #25 {
  %.not = icmp eq ptr %0, null
  br i1 %.not, label %20, label %2

2:                                                ; preds = %1
  %3 = getelementptr inbounds nuw i8, ptr %0, i64 632
  %4 = load ptr, ptr %3, align 8, !tbaa !129
  %.not18 = icmp eq ptr %4, null
  br i1 %.not18, label %20, label %5

5:                                                ; preds = %2
  %6 = load ptr, ptr %4, align 8, !tbaa !132
  %.not19 = icmp eq ptr %6, null
  %7 = getelementptr inbounds nuw i8, ptr %0, i64 648
  %8 = load ptr, ptr %7, align 8, !tbaa !124
  br i1 %.not19, label %14, label %9

9:                                                ; preds = %5
  %10 = getelementptr inbounds nuw i8, ptr %6, i64 16
  %11 = load i32, ptr %10, align 8, !tbaa !133
  %12 = sext i32 %11 to i64
  %13 = getelementptr inbounds i8, ptr %8, i64 %12
  store i8 0, ptr %13, align 1, !tbaa !6
  br label %15

14:                                               ; preds = %5
  store i8 0, ptr %8, align 1, !tbaa !6
  br label %15

15:                                               ; preds = %14, %9
  %16 = load ptr, ptr %3, align 8, !tbaa !129
  %17 = load ptr, ptr %16, align 8, !tbaa !132
  store ptr %17, ptr %3, align 8, !tbaa !129
  tail call void @free(ptr noundef nonnull %4) #39
  %18 = getelementptr inbounds nuw i8, ptr %0, i64 648
  %19 = load ptr, ptr %18, align 8, !tbaa !124
  %.not20 = icmp eq ptr %19, null
  %spec.select = select i1 %.not20, ptr @.str.11, ptr %19
  br label %20

20:                                               ; preds = %1, %2, %15
  %.0 = phi ptr [ %spec.select, %15 ], [ null, %2 ], [ null, %1 ]
  ret ptr %.0
}